target datalayout = "e-m:e-p270:32:32-p271:32:32-p272:64:64-i64:64-i128:128-f80:128-n8:16:32:64-S128"
target triple = "x86_64-pc-linux-gnu"

%struct.rtps_psk_options_entry_t = type { ptr, ptr, %struct.rtps_psk_options_entry_uint32_string_t, ptr, %struct.rtps_psk_options_entry_uint32_string_t, ptr, %struct.rtps_psk_options_entry_uint32_string_t, ptr, %struct.rtps_psk_options_entry_uint32_string_t }
%struct.rtps_psk_options_entry_uint32_string_t = type { i32, i8 }

; Function Attrs: null_pointer_is_valid sspstrong uwtable
define internal ptr @rtps_psk_options_copy_entry(ptr noundef %0, ptr noundef %1, i64 noundef %2) #0 {
  %4 = alloca ptr, align 8
  %5 = alloca ptr, align 8
  %6 = alloca i64, align 8
  %7 = alloca ptr, align 8
  %8 = alloca ptr, align 8
  store ptr %0, ptr %4, align 8
  store ptr %1, ptr %5, align 8
  store i64 %2, ptr %6, align 8
  call void @llvm.lifetime.start.p0(i64 8, ptr %7) #14
  %9 = load ptr, ptr %5, align 8
  store ptr %9, ptr %7, align 8
  call void @llvm.lifetime.start.p0(i64 8, ptr %8) #14
  %10 = load ptr, ptr %4, align 8
  store ptr %10, ptr %8, align 8
  %11 = load ptr, ptr %7, align 8
  %12 = getelementptr inbounds nuw %struct.rtps_psk_options_entry_t, ptr %11, i32 0, i32 0
  %13 = load ptr, ptr %12, align 8
  %14 = call noalias ptr @g_strdup(ptr noundef %13)
  %15 = load ptr, ptr %8, align 8
  %16 = getelementptr inbounds nuw %struct.rtps_psk_options_entry_t, ptr %15, i32 0, i32 0
  store ptr %14, ptr %16, align 8
  %17 = load ptr, ptr %8, align 8
  %18 = getelementptr inbounds nuw %struct.rtps_psk_options_entry_t, ptr %17, i32 0, i32 2
  %19 = load ptr, ptr %7, align 8
  %20 = getelementptr inbounds nuw %struct.rtps_psk_options_entry_t, ptr %19, i32 0, i32 2
  call void @llvm.memcpy.p0.p0.i64(ptr align 8 %18, ptr align 8 %20, i64 8, i1 false)
  %21 = load ptr, ptr %7, align 8
  %22 = getelementptr inbounds nuw %struct.rtps_psk_options_entry_t, ptr %21, i32 0, i32 1
  %23 = load ptr, ptr %22, align 8
  %24 = call noalias ptr @g_strdup(ptr noundef %23)
  %25 = load ptr, ptr %8, align 8
  %26 = getelementptr inbounds nuw %struct.rtps_psk_options_entry_t, ptr %25, i32 0, i32 1
  store ptr %24, ptr %26, align 8
  %27 = load ptr, ptr %8, align 8
  %28 = getelementptr inbounds nuw %struct.rtps_psk_options_entry_t, ptr %27, i32 0, i32 4
  %29 = load ptr, ptr %7, align 8
  %30 = getelementptr inbounds nuw %struct.rtps_psk_options_entry_t, ptr %29, i32 0, i32 4
  call void @llvm.memcpy.p0.p0.i64(ptr align 8 %28, ptr align 8 %30, i64 8, i1 false)
  %31 = load ptr, ptr %7, align 8
  %32 = getelementptr inbounds nuw %struct.rtps_psk_options_entry_t, ptr %31, i32 0, i32 3
  %33 = load ptr, ptr %32, align 8
  %34 = call noalias ptr @g_strdup(ptr noundef %33)
  %35 = load ptr, ptr %8, align 8
  %36 = getelementptr inbounds nuw %struct.rtps_psk_options_entry_t, ptr %35, i32 0, i32 3
  store ptr %34, ptr %36, align 8
  %37 = load ptr, ptr %8, align 8
  %38 = getelementptr inbounds nuw %struct.rtps_psk_options_entry_t, ptr %37, i32 0, i32 6
  %39 = load ptr, ptr %7, align 8
  %40 = getelementptr inbounds nuw %struct.rtps_psk_options_entry_t, ptr %39, i32 0, i32 6
  call void @llvm.memcpy.p0.p0.i64(ptr align 8 %38, ptr align 8 %40, i64 8, i1 false)
  %41 = load ptr, ptr %7, align 8
  %42 = getelementptr inbounds nuw %struct.rtps_psk_options_entry_t, ptr %41, i32 0, i32 5
  %43 = load ptr, ptr %42, align 8
  %44 = call noalias ptr @g_strdup(ptr noundef %43)
  %45 = load ptr, ptr %8, align 8
  %46 = getelementptr inbounds nuw %struct.rtps_psk_options_entry_t, ptr %45, i32 0, i32 5
  store ptr %44, ptr %46, align 8
  %47 = load ptr, ptr %8, align 8
  %48 = getelementptr inbounds nuw %struct.rtps_psk_options_entry_t, ptr %47, i32 0, i32 8
  %49 = load ptr, ptr %7, align 8
  %50 = getelementptr inbounds nuw %struct.rtps_psk_options_entry_t, ptr %49, i32 0, i32 8
  call void @llvm.memcpy.p0.p0.i64(ptr align 8 %48, ptr align 8 %50, i64 8, i1 false)
  %51 = load ptr, ptr %7, align 8
  %52 = getelementptr inbounds nuw %struct.rtps_psk_options_entry_t, ptr %51, i32 0, i32 7
  %53 = load ptr, ptr %52, align 8
  %54 = call noalias ptr @g_strdup(ptr noundef %53)
  %55 = load ptr, ptr %8, align 8
  %56 = getelementptr inbounds nuw %struct.rtps_psk_options_entry_t, ptr %55, i32 0, i32 7
  store ptr %54, ptr %56, align 8
  %57 = load ptr, ptr %8, align 8
  call void @llvm.lifetime.end.p0(i64 8, ptr %8) #14
  call void @llvm.lifetime.end.p0(i64 8, ptr %7) #14
  ret ptr %57
}