; Function Attrs: null_pointer_is_valid sspstrong uwtable
define internal noundef ptr @rtps_psk_options_copy_entry(ptr noundef returned writeonly captures(ret: address, provenance) initializes((0, 72)) %0, ptr noundef readonly captures(none) %1, i64 %2) #0 {
  %4 = load ptr, ptr %1, align 8
  %5 = tail call noalias ptr @g_strdup(ptr noundef %4)
  store ptr %5, ptr %0, align 8
  %6 = getelementptr inbounds nuw i8, ptr %0, i64 16
  %7 = getelementptr inbounds nuw i8, ptr %1, i64 16
  %8 = load i64, ptr %7, align 8
  store i64 %8, ptr %6, align 8
  %9 = getelementptr inbounds nuw i8, ptr %1, i64 8
  %10 = load ptr, ptr %9, align 8
  %11 = tail call noalias ptr @g_strdup(ptr noundef %10)
  %12 = getelementptr inbounds nuw i8, ptr %0, i64 8
  store ptr %11, ptr %12, align 8
  %13 = getelementptr inbounds nuw i8, ptr %0, i64 32
  %14 = getelementptr inbounds nuw i8, ptr %1, i64 32
  %15 = load i64, ptr %14, align 8
  store i64 %15, ptr %13, align 8
  %16 = getelementptr inbounds nuw i8, ptr %1, i64 24
  %17 = load ptr, ptr %16, align 8
  %18 = tail call noalias ptr @g_strdup(ptr noundef %17)
  %19 = getelementptr inbounds nuw i8, ptr %0, i64 24
  store ptr %18, ptr %19, align 8
  %20 = getelementptr inbounds nuw i8, ptr %0, i64 48
  %21 = getelementptr inbounds nuw i8, ptr %1, i64 48
  %22 = load i64, ptr %21, align 8
  store i64 %22, ptr %20, align 8
  %23 = getelementptr inbounds nuw i8, ptr %1, i64 40
  %24 = load ptr, ptr %23, align 8
  %25 = tail call noalias ptr @g_strdup(ptr noundef %24)
  %26 = getelementptr inbounds nuw i8, ptr %0, i64 40
  store ptr %25, ptr %26, align 8
  %27 = getelementptr inbounds nuw i8, ptr %0, i64 64
  %28 = getelementptr inbounds nuw i8, ptr %1, i64 64
  %29 = load i64, ptr %28, align 8
  store i64 %29, ptr %27, align 8
  %30 = getelementptr inbounds nuw i8, ptr %1, i64 56
  %31 = load ptr, ptr %30, align 8
  %32 = tail call noalias ptr @g_strdup(ptr noundef %31)
  %33 = getelementptr inbounds nuw i8, ptr %0, i64 56
  store ptr %32, ptr %33, align 8
  ret ptr %0
}